target datalayout = "e-m:e-p270:32:32-p271:32:32-p272:64:64-i64:64-i128:128-f80:128-n8:16:32:64-S128"
target triple = "x86_64-pc-linux-gnu"

%struct.rb_data_type_struct = type { ptr, %struct.anon.4, ptr, ptr, i64 }
%struct.anon.4 = type { ptr, ptr, ptr, ptr, [1 x ptr] }
%struct.sockaddr = type { i16, [14 x i8] }
%struct.sockaddr_un = type { i16, [108 x i8] }
%struct.rb_addrinfo_t = type { i64, i64, i32, i32, i32, i32, %union.union_sockaddr }
%union.union_sockaddr = type { %struct.sockaddr_storage, [1920 x i8] }
%struct.sockaddr_storage = type { i16, [118 x i8], i64 }

@rb_eSocket = external global i64, align 8
@addrinfo_type = internal constant %struct.rb_data_type_struct { ptr @.str.102, %struct.anon.4 { ptr @addrinfo_mark, ptr inttoptr (i64 -1 to ptr), ptr @addrinfo_memsize, ptr null, [1 x ptr] zeroinitializer }, ptr null, ptr null, i64 0 }, align 8
@rb_eTypeError = external global i64, align 8
@.str.101 = private unnamed_addr constant [29 x i8] c"uninitialized socket address\00", align 1
@.str.124 = private unnamed_addr constant [21 x i8] c"need AF_UNIX address\00", align 1
@.str.125 = private unnamed_addr constant [66 x i8] c"too short AF_UNIX address: %zu bytes given for minimum %zu bytes.\00", align 1
@.str.126 = private unnamed_addr constant [58 x i8] c"too long AF_UNIX path (%zu bytes given but %zu bytes max)\00", align 1

; Function Attrs: nounwind sspstrong uwtable
define internal i64 @unixsocket_len(ptr noundef %0, i32 noundef %1) #0 {
  %3 = alloca ptr, align 8
  %4 = alloca i32, align 4
  %5 = alloca ptr, align 8
  %6 = alloca ptr, align 8
  store ptr %0, ptr %3, align 8, !tbaa !104
  store i32 %1, ptr %4, align 4, !tbaa !27
  call void @llvm.lifetime.start.p0(i64 8, ptr %5) #24
  %7 = load ptr, ptr %3, align 8, !tbaa !104
  %8 = getelementptr inbounds nuw %struct.sockaddr_un, ptr %7, i32 0, i32 1
  %9 = getelementptr inbounds [108 x i8], ptr %8, i64 0, i64 0
  store ptr %9, ptr %5, align 8, !tbaa !30
  call void @llvm.lifetime.start.p0(i64 8, ptr %6) #24
  %10 = load ptr, ptr %3, align 8, !tbaa !104
  %11 = load i32, ptr %4, align 4, !tbaa !27
  %12 = zext i32 %11 to i64
  %13 = getelementptr inbounds nuw i8, ptr %10, i64 %12
  store ptr %13, ptr %6, align 8, !tbaa !30
  br label %14

14:                                               ; preds = %26, %2
  %15 = load ptr, ptr %5, align 8, !tbaa !30
  %16 = load ptr, ptr %6, align 8, !tbaa !30
  %17 = icmp ult ptr %15, %16
  br i1 %17, label %18, label %24

18:                                               ; preds = %14
  %19 = load ptr, ptr %6, align 8, !tbaa !30
  %20 = getelementptr inbounds i8, ptr %19, i64 -1
  %21 = load i8, ptr %20, align 1, !tbaa !51
  %22 = sext i8 %21 to i32
  %23 = icmp eq i32 %22, 0
  br label %24

24:                                               ; preds = %18, %14
  %25 = phi i1 [ false, %14 ], [ %23, %18 ]
  br i1 %25, label %26, label %29

26:                                               ; preds = %24
  %27 = load ptr, ptr %6, align 8, !tbaa !30
  %28 = getelementptr inbounds i8, ptr %27, i32 -1
  store ptr %28, ptr %6, align 8, !tbaa !30
  br label %14, !llvm.loop !106

29:                                               ; preds = %24
  %30 = load ptr, ptr %6, align 8, !tbaa !30
  %31 = load ptr, ptr %5, align 8, !tbaa !30
  %32 = ptrtoint ptr %30 to i64
  %33 = ptrtoint ptr %31 to i64
  %34 = sub i64 %32, %33
  call void @llvm.lifetime.end.p0(i64 8, ptr %6) #24
  call void @llvm.lifetime.end.p0(i64 8, ptr %5) #24
  ret i64 %34
}

; Function Attrs: nounwind sspstrong uwtable
define internal i32 @get_afamily(ptr noundef %0, i32 noundef %1) #0 {
  %3 = alloca i32, align 4
  %4 = alloca ptr, align 8
  %5 = alloca i32, align 4
  store ptr %0, ptr %4, align 8, !tbaa !29
  store i32 %1, ptr %5, align 4, !tbaa !27
  %6 = load ptr, ptr %4, align 8, !tbaa !29
  %7 = getelementptr inbounds nuw %struct.sockaddr, ptr %6, i32 0, i32 0
  %8 = getelementptr inbounds nuw i8, ptr %7, i64 2
  %9 = load ptr, ptr %4, align 8, !tbaa !29
  %10 = ptrtoint ptr %8 to i64
  %11 = ptrtoint ptr %9 to i64
  %12 = sub i64 %10, %11
  %13 = trunc i64 %12 to i32
  %14 = load i32, ptr %5, align 4, !tbaa !27
  %15 = icmp ule i32 %13, %14
  br i1 %15, label %16, label %21

16:                                               ; preds = %2
  %17 = load ptr, ptr %4, align 8, !tbaa !29
  %18 = getelementptr inbounds nuw %struct.sockaddr, ptr %17, i32 0, i32 0
  %19 = load i16, ptr %18, align 2, !tbaa !96
  %20 = zext i16 %19 to i32
  store i32 %20, ptr %3, align 4
  br label %22

21:                                               ; preds = %2
  store i32 0, ptr %3, align 4
  br label %22

22:                                               ; preds = %21, %16
  %23 = load i32, ptr %3, align 4
  ret i32 %23
}

; Function Attrs: inlinehint nounwind sspstrong uwtable
define internal ptr @check_addrinfo(i64 noundef %0) #5 {
  %2 = alloca i64, align 8
  store i64 %0, ptr %2, align 8, !tbaa !31
  %3 = load i64, ptr %2, align 8, !tbaa !31
  %4 = call ptr @rb_check_typeddata(i64 noundef %3, ptr noundef @addrinfo_type)
  ret ptr %4
}

; Function Attrs: nounwind sspstrong uwtable
define internal i64 @rai_unixsocket_len(ptr noundef %0) #0 {
  %2 = alloca ptr, align 8
  store ptr %0, ptr %2, align 8, !tbaa !26
  %3 = load ptr, ptr %2, align 8, !tbaa !26
  %4 = getelementptr inbounds nuw %struct.rb_addrinfo_t, ptr %3, i32 0, i32 6
  %5 = load ptr, ptr %2, align 8, !tbaa !26
  %6 = getelementptr inbounds nuw %struct.rb_addrinfo_t, ptr %5, i32 0, i32 5
  %7 = load i32, ptr %6, align 4, !tbaa !126
  %8 = call i64 @unixsocket_len(ptr noundef %4, i32 noundef %7)
  ret i64 %8
}

; Function Attrs: nounwind sspstrong uwtable
define internal i32 @ai_get_afamily(ptr noundef %0) #0 {
  %2 = alloca ptr, align 8
  store ptr %0, ptr %2, align 8, !tbaa !26
  %3 = load ptr, ptr %2, align 8, !tbaa !26
  %4 = getelementptr inbounds nuw %struct.rb_addrinfo_t, ptr %3, i32 0, i32 6
  %5 = load ptr, ptr %2, align 8, !tbaa !26
  %6 = getelementptr inbounds nuw %struct.rb_addrinfo_t, ptr %5, i32 0, i32 5
  %7 = load i32, ptr %6, align 4, !tbaa !126
  %8 = call i32 @get_afamily(ptr noundef %4, i32 noundef %7)
  ret i32 %8
}

; Function Attrs: nounwind sspstrong uwtable
define internal ptr @get_addrinfo(i64 noundef %0) #0 {
  %2 = alloca i64, align 8
  %3 = alloca ptr, align 8
  store i64 %0, ptr %2, align 8, !tbaa !31
  call void @llvm.lifetime.start.p0(i64 8, ptr %3) #24
  %4 = load i64, ptr %2, align 8, !tbaa !31
  %5 = call ptr @check_addrinfo(i64 noundef %4)
  store ptr %5, ptr %3, align 8, !tbaa !26
  %6 = load ptr, ptr %3, align 8, !tbaa !26
  %7 = icmp ne ptr %6, null
  br i1 %7, label %10, label %8

8:                                                ; preds = %1
  %9 = load i64, ptr @rb_eTypeError, align 8, !tbaa !31
  call void (i64, ptr, ...) @rb_raise(i64 noundef %9, ptr noundef @.str.101) #27
  unreachable

10:                                               ; preds = %1
  %11 = load ptr, ptr %3, align 8, !tbaa !26
  call void @llvm.lifetime.end.p0(i64 8, ptr %3) #24
  ret ptr %11
}

; Function Attrs: nounwind sspstrong uwtable
define internal i64 @addrinfo_unix_path(i64 noundef %0) #0 {
  %2 = alloca i64, align 8
  %3 = alloca ptr, align 8
  %4 = alloca i32, align 4
  %5 = alloca ptr, align 8
  %6 = alloca i64, align 8
  store i64 %0, ptr %2, align 8, !tbaa !31
  call void @llvm.lifetime.start.p0(i64 8, ptr %3) #24
  %7 = load i64, ptr %2, align 8, !tbaa !31
  %8 = call ptr @get_addrinfo(i64 noundef %7)
  store ptr %8, ptr %3, align 8, !tbaa !26
  call void @llvm.lifetime.start.p0(i64 4, ptr %4) #24
  %9 = load ptr, ptr %3, align 8, !tbaa !26
  %10 = call i32 @ai_get_afamily(ptr noundef %9)
  store i32 %10, ptr %4, align 4, !tbaa !27
  call void @llvm.lifetime.start.p0(i64 8, ptr %5) #24
  call void @llvm.lifetime.start.p0(i64 8, ptr %6) #24
  %11 = load i32, ptr %4, align 4, !tbaa !27
  %12 = icmp ne i32 %11, 1
  br i1 %12, label %13, label %15

13:                                               ; preds = %1
  %14 = load i64, ptr @rb_eSocket, align 8, !tbaa !31
  call void (i64, ptr, ...) @rb_raise(i64 noundef %14, ptr noundef @.str.124) #27
  unreachable

15:                                               ; preds = %1
  %16 = load ptr, ptr %3, align 8, !tbaa !26
  %17 = getelementptr inbounds nuw %struct.rb_addrinfo_t, ptr %16, i32 0, i32 6
  store ptr %17, ptr %5, align 8, !tbaa !104
  %18 = load ptr, ptr %3, align 8, !tbaa !26
  %19 = call i64 @rai_unixsocket_len(ptr noundef %18)
  store i64 %19, ptr %6, align 8, !tbaa !31
  %20 = load i64, ptr %6, align 8, !tbaa !31
  %21 = icmp slt i64 %20, 0
  br i1 %21, label %22, label %28

22:                                               ; preds = %15
  %23 = load i64, ptr @rb_eSocket, align 8, !tbaa !31
  %24 = load ptr, ptr %3, align 8, !tbaa !26
  %25 = getelementptr inbounds nuw %struct.rb_addrinfo_t, ptr %24, i32 0, i32 5
  %26 = load i32, ptr %25, align 4, !tbaa !126
  %27 = zext i32 %26 to i64
  call void (i64, ptr, ...) @rb_raise(i64 noundef %23, ptr noundef @.str.125, i64 noundef %27, i64 noundef 2) #27
  unreachable

28:                                               ; preds = %15
  %29 = load i64, ptr %6, align 8, !tbaa !31
  %30 = icmp slt i64 108, %29
  br i1 %30, label %31, label %34

31:                                               ; preds = %28
  %32 = load i64, ptr @rb_eSocket, align 8, !tbaa !31
  %33 = load i64, ptr %6, align 8, !tbaa !31
  call void (i64, ptr, ...) @rb_raise(i64 noundef %32, ptr noundef @.str.126, i64 noundef %33, i64 noundef 108) #27
  unreachable

34:                                               ; preds = %28
  br i1 false, label %35, label %38

35:                                               ; preds = %34
  %36 = load i64, ptr %6, align 8, !tbaa !31
  %37 = call i1 @llvm.is.constant.i64(i64 %36)
  br label %38

38:                                               ; preds = %35, %34
  %39 = phi i1 [ false, %34 ], [ %37, %35 ]
  %40 = select i1 %39, ptr @rb_str_new_static, ptr @rb_str_new
  %41 = load ptr, ptr %5, align 8, !tbaa !104
  %42 = getelementptr inbounds nuw %struct.sockaddr_un, ptr %41, i32 0, i32 1
  %43 = getelementptr inbounds [108 x i8], ptr %42, i64 0, i64 0
  %44 = load i64, ptr %6, align 8, !tbaa !31
  %45 = call i64 %40(ptr noundef %43, i64 noundef %44)
  call void @llvm.lifetime.end.p0(i64 8, ptr %6) #24
  call void @llvm.lifetime.end.p0(i64 8, ptr %5) #24
  call void @llvm.lifetime.end.p0(i64 4, ptr %4) #24
  call void @llvm.lifetime.end.p0(i64 8, ptr %3) #24
  ret i64 %45
}