; Function Attrs: nounwind sspstrong uwtable
define internal i64 @addrinfo_unix_path(i64 noundef %0) #0 {
  %2 = tail call ptr @rb_check_typeddata(i64 noundef %0, ptr noundef nonnull @addrinfo_type) #21
  %.not.i = icmp eq ptr %2, null
  br i1 %.not.i, label %3, label %get_addrinfo.exit

3:                                                ; preds = %1
  %4 = load i64, ptr @rb_eTypeError, align 8, !tbaa !35
  tail call void (i64, ptr, ...) @rb_raise(i64 noundef %4, ptr noundef nonnull @.str.101) #23
  unreachable

get_addrinfo.exit:                                ; preds = %1
  %5 = getelementptr inbounds nuw i8, ptr %2, i64 28
  %6 = load i32, ptr %5, align 4, !tbaa !118
  %7 = icmp ugt i32 %6, 1
  br i1 %7, label %ai_get_afamily.exit, label %ai_get_afamily.exit.thread

ai_get_afamily.exit:                              ; preds = %get_addrinfo.exit
  %8 = getelementptr inbounds nuw i8, ptr %2, i64 32
  %9 = load i16, ptr %8, align 2, !tbaa !91
  %.not = icmp eq i16 %9, 1
  br i1 %.not, label %11, label %ai_get_afamily.exit.thread

ai_get_afamily.exit.thread:                       ; preds = %get_addrinfo.exit, %ai_get_afamily.exit
  %10 = load i64, ptr @rb_eSocket, align 8, !tbaa !35
  tail call void (i64, ptr, ...) @rb_raise(i64 noundef %10, ptr noundef nonnull @.str.124) #23
  unreachable

11:                                               ; preds = %ai_get_afamily.exit
  %12 = zext i32 %6 to i64
  br label %13

13:                                               ; preds = %15, %11
  %.0.idx.i.i = phi i64 [ %12, %11 ], [ %.0.add.i.i, %15 ]
  %14 = icmp sgt i64 %.0.idx.i.i, 2
  br i1 %14, label %15, label %rai_unixsocket_len.exit.thread

15:                                               ; preds = %13
  %.0.add.i.i = add nsw i64 %.0.idx.i.i, -1
  %.ptr.i.i = getelementptr inbounds i8, ptr %8, i64 %.0.add.i.i
  %16 = load i8, ptr %.ptr.i.i, align 1, !tbaa !49
  %17 = icmp eq i8 %16, 0
  br i1 %17, label %13, label %rai_unixsocket_len.exit, !llvm.loop !93

rai_unixsocket_len.exit:                          ; preds = %15
  %gepdiff.i.i = add nsw i64 %.0.idx.i.i, -2
  %18 = icmp samesign ugt i64 %gepdiff.i.i, 108
  br i1 %18, label %19, label %rai_unixsocket_len.exit.thread

19:                                               ; preds = %rai_unixsocket_len.exit
  %20 = load i64, ptr @rb_eSocket, align 8, !tbaa !35
  tail call void (i64, ptr, ...) @rb_raise(i64 noundef %20, ptr noundef nonnull @.str.126, i64 noundef %gepdiff.i.i, i64 noundef 108) #23
  unreachable

rai_unixsocket_len.exit.thread:                   ; preds = %13, %rai_unixsocket_len.exit
  %gepdiff.i.i14 = phi i64 [ %gepdiff.i.i, %rai_unixsocket_len.exit ], [ 0, %13 ]
  %21 = getelementptr inbounds nuw i8, ptr %2, i64 34
  %22 = tail call i64 @rb_str_new(ptr noundef nonnull %21, i64 noundef %gepdiff.i.i14) #21
  ret i64 %22
}